; Function Attrs: mustprogress uwtable
define hidden void @_ZNK4cvc58internal6theory5arith2nl10IAndSolver12convertToBvKEjNS0_12NodeTemplateILb1EEE(ptr dead_on_unwind noalias writable sret(%"class.cvc5::internal::NodeTemplate") align 8 %0, ptr noundef nonnull align 8 dereferenceable(248) %1, i32 noundef %2, ptr noundef readonly captures(none) %3) local_unnamed_addr #3 align 2 personality ptr @__gxx_personality_v0 {
  %5 = alloca %"class.cvc5::internal::NodeBuilder", align 8
  %6 = alloca %"class.cvc5::internal::NodeTemplate.436", align 8
  %7 = alloca %"class.cvc5::internal::NodeTemplate.436", align 8
  %8 = alloca %"class.cvc5::internal::NodeTemplate", align 8
  %9 = alloca %"struct.cvc5::internal::IntToBitVector", align 4
  %10 = alloca %"class.cvc5::internal::NodeTemplate", align 8
  %11 = alloca %"class.cvc5::internal::NodeTemplate.436", align 8
  %12 = tail call noundef ptr @_ZNK4cvc58internal6EnvObj11nodeManagerEv(ptr noundef nonnull align 8 dereferenceable(16) %1)
  call void @llvm.lifetime.start.p0(i64 8, ptr nonnull %8) #21
  call void @llvm.lifetime.start.p0(i64 4, ptr nonnull %9) #21
  store i32 %2, ptr %9, align 4, !tbaa !375
  call void @_ZN4cvc58internal11NodeManager7mkConstINS0_14IntToBitVectorEEENS0_12NodeTemplateILb1EEERKT_(ptr dead_on_unwind nonnull writable sret(%"class.cvc5::internal::NodeTemplate") align 8 %8, ptr noundef nonnull align 8 dereferenceable(3560) %12, ptr noundef nonnull align 4 dereferenceable(4) %9)
  call void @llvm.lifetime.end.p0(i64 4, ptr nonnull %9) #21
  call void @llvm.lifetime.start.p0(i64 8, ptr nonnull %10) #21
  %13 = load ptr, ptr %8, align 8, !tbaa !15
  %14 = load ptr, ptr %3, align 8, !tbaa !15
  call void @llvm.lifetime.start.p0(i64 8, ptr nonnull %6)
  call void @llvm.lifetime.start.p0(i64 8, ptr nonnull %7)
  call void @llvm.lifetime.start.p0(i64 128, ptr nonnull %5) #21, !noalias !377
  %15 = getelementptr inbounds nuw i8, ptr %13, i64 16
  %16 = load ptr, ptr %15, align 8, !tbaa !65, !noalias !377
  invoke void @_ZN4cvc58internal11NodeBuilderC1EPNS0_11NodeManagerENS0_4kind6Kind_tE(ptr noundef nonnull align 8 dereferenceable(124) %5, ptr noundef %16, i32 noundef 38)
          to label %.noexc unwind label %57

.noexc:                                           ; preds = %4
  store ptr %13, ptr %6, align 8, !tbaa !68, !noalias !377
  %17 = invoke noundef nonnull align 8 dereferenceable(124) ptr @_ZN4cvc58internal11NodeBuilderlsENS0_12NodeTemplateILb0EEE(ptr noundef nonnull align 8 dereferenceable(124) %5, ptr noundef nonnull %6)
          to label %18 unwind label %23, !noalias !377

18:                                               ; preds = %.noexc
  store ptr %14, ptr %7, align 8, !tbaa !68, !noalias !377
  %19 = invoke noundef nonnull align 8 dereferenceable(124) ptr @_ZN4cvc58internal11NodeBuilderlsENS0_12NodeTemplateILb0EEE(ptr noundef nonnull align 8 dereferenceable(124) %17, ptr noundef nonnull %7)
          to label %20 unwind label %25, !noalias !377

20:                                               ; preds = %18
  invoke void @_ZN4cvc58internal11NodeBuilder13constructNodeEv(ptr dead_on_unwind nonnull writable sret(%"class.cvc5::internal::NodeTemplate") align 8 %10, ptr noundef nonnull align 8 dereferenceable(124) %5)
          to label %28 unwind label %21

21:                                               ; preds = %20
  %22 = landingpad { ptr, i32 }
          cleanup
  br label %27

23:                                               ; preds = %.noexc
  %24 = landingpad { ptr, i32 }
          cleanup
  br label %27

25:                                               ; preds = %18
  %26 = landingpad { ptr, i32 }
          cleanup
  br label %27

27:                                               ; preds = %25, %23, %21
  %.pn5.i = phi { ptr, i32 } [ %22, %21 ], [ %26, %25 ], [ %24, %23 ]
  call void @_ZN4cvc58internal11NodeBuilderD1Ev(ptr noundef nonnull align 8 dereferenceable(124) %5) #21
  call void @llvm.lifetime.end.p0(i64 128, ptr nonnull %5) #21, !noalias !377
  br label %.body

28:                                               ; preds = %20
  call void @_ZN4cvc58internal11NodeBuilderD1Ev(ptr noundef nonnull align 8 dereferenceable(124) %5) #21
  call void @llvm.lifetime.end.p0(i64 128, ptr nonnull %5) #21, !noalias !377
  call void @llvm.lifetime.end.p0(i64 8, ptr nonnull %6)
  call void @llvm.lifetime.end.p0(i64 8, ptr nonnull %7)
  %29 = load ptr, ptr %10, align 8, !tbaa !15
  store ptr %29, ptr %11, align 8, !tbaa !68
  invoke void @_ZNK4cvc58internal6EnvObj7rewriteENS0_12NodeTemplateILb0EEE(ptr dead_on_unwind writable sret(%"class.cvc5::internal::NodeTemplate") align 8 %0, ptr noundef nonnull align 8 dereferenceable(16) %1, ptr noundef nonnull %11)
          to label %30 unwind label %59

30:                                               ; preds = %28
  %31 = load ptr, ptr %10, align 8, !tbaa !15
  %32 = load i64, ptr %31, align 8
  %33 = and i64 %32, 1152920405095219200
  %.not.i.i = icmp eq i64 %33, 1152920405095219200
  br i1 %.not.i.i, label %_ZN4cvc58internal12NodeTemplateILb1EED2Ev.exit, label %34, !prof !46

34:                                               ; preds = %30
  %35 = add i64 %32, 1152920405095219200
  %36 = and i64 %35, 1152920405095219200
  %37 = and i64 %32, -1152920405095219201
  %38 = or disjoint i64 %36, %37
  store i64 %38, ptr %31, align 8
  %39 = icmp eq i64 %36, 0
  br i1 %39, label %40, label %_ZN4cvc58internal12NodeTemplateILb1EED2Ev.exit, !prof !46

40:                                               ; preds = %34
  invoke void @_ZN4cvc58internal4expr9NodeValue15markForDeletionEv(ptr noundef nonnull align 8 dereferenceable(24) %31)
          to label %_ZN4cvc58internal12NodeTemplateILb1EED2Ev.exit unwind label %41

41:                                               ; preds = %40
  %42 = landingpad { ptr, i32 }
          catch ptr null
  %43 = extractvalue { ptr, i32 } %42, 0
  call void @__clang_call_terminate(ptr %43) #24
  unreachable

_ZN4cvc58internal12NodeTemplateILb1EED2Ev.exit:   ; preds = %30, %34, %40
  call void @llvm.lifetime.end.p0(i64 8, ptr nonnull %10) #21
  %44 = load ptr, ptr %8, align 8, !tbaa !15
  %45 = load i64, ptr %44, align 8
  %46 = and i64 %45, 1152920405095219200
  %.not.i.i6 = icmp eq i64 %46, 1152920405095219200
  br i1 %.not.i.i6, label %_ZN4cvc58internal12NodeTemplateILb1EED2Ev.exit7, label %47, !prof !46

47:                                               ; preds = %_ZN4cvc58internal12NodeTemplateILb1EED2Ev.exit
  %48 = add i64 %45, 1152920405095219200
  %49 = and i64 %48, 1152920405095219200
  %50 = and i64 %45, -1152920405095219201
  %51 = or disjoint i64 %49, %50
  store i64 %51, ptr %44, align 8
  %52 = icmp eq i64 %49, 0
  br i1 %52, label %53, label %_ZN4cvc58internal12NodeTemplateILb1EED2Ev.exit7, !prof !46

53:                                               ; preds = %47
  invoke void @_ZN4cvc58internal4expr9NodeValue15markForDeletionEv(ptr noundef nonnull align 8 dereferenceable(24) %44)
          to label %_ZN4cvc58internal12NodeTemplateILb1EED2Ev.exit7 unwind label %54

54:                                               ; preds = %53
  %55 = landingpad { ptr, i32 }
          catch ptr null
  %56 = extractvalue { ptr, i32 } %55, 0
  call void @__clang_call_terminate(ptr %56) #24
  unreachable

_ZN4cvc58internal12NodeTemplateILb1EED2Ev.exit7:  ; preds = %_ZN4cvc58internal12NodeTemplateILb1EED2Ev.exit, %47, %53
  call void @llvm.lifetime.end.p0(i64 8, ptr nonnull %8) #21
  ret void

57:                                               ; preds = %4
  %58 = landingpad { ptr, i32 }
          cleanup
  br label %.body

59:                                               ; preds = %28
  %60 = landingpad { ptr, i32 }
          cleanup
  call void @_ZN4cvc58internal12NodeTemplateILb1EED2Ev(ptr noundef nonnull align 8 dereferenceable(8) %10) #21
  br label %.body

.body:                                            ; preds = %57, %27, %59
  %.pn = phi { ptr, i32 } [ %60, %59 ], [ %58, %57 ], [ %.pn5.i, %27 ]
  call void @llvm.lifetime.end.p0(i64 8, ptr nonnull %10) #21
  call void @_ZN4cvc58internal12NodeTemplateILb1EED2Ev(ptr noundef nonnull align 8 dereferenceable(8) %8) #21
  call void @llvm.lifetime.end.p0(i64 8, ptr nonnull %8) #21
  resume { ptr, i32 } %.pn
}